; Function Attrs: nofree norecurse nosync nounwind memory(read, argmem: readwrite, inaccessiblemem: none) uwtable
define void @Abc_BufUpdateGlobal(ptr noundef captures(none) initializes((80, 84)) %0) local_unnamed_addr #8 {
  %2 = getelementptr inbounds nuw i8, ptr %0, i64 80
  store i32 0, ptr %2, align 8, !tbaa !86
  %3 = getelementptr inbounds nuw i8, ptr %0, i64 16
  %4 = load ptr, ptr %3, align 8, !tbaa !87
  %5 = getelementptr i8, ptr %4, i64 64
  %.val12 = load ptr, ptr %5, align 8, !tbaa !88
  %6 = getelementptr i8, ptr %.val12, i64 4
  %.val12.val = load i32, ptr %6, align 4, !tbaa !24
  %7 = icmp sgt i32 %.val12.val, 0
  br i1 %7, label %.lr.ph, label %.critedge

.lr.ph:                                           ; preds = %1
  %8 = getelementptr i8, ptr %.val12, i64 8
  %.val13.val = load ptr, ptr %8, align 8, !tbaa !26
  %9 = getelementptr i8, ptr %0, i64 40
  %.val10 = load ptr, ptr %9, align 8, !tbaa !81
  %10 = getelementptr i8, ptr %.val10, i64 8
  %.val10.val = load ptr, ptr %10, align 8, !tbaa !45
  %wide.trip.count = zext nneg i32 %.val12.val to i64
  br label %11

11:                                               ; preds = %.lr.ph, %11
  %indvars.iv = phi i64 [ 0, %.lr.ph ], [ %indvars.iv.next, %11 ]
  %12 = phi i32 [ 0, %.lr.ph ], [ %25, %11 ]
  %13 = getelementptr inbounds nuw ptr, ptr %.val13.val, i64 %indvars.iv
  %14 = load ptr, ptr %13, align 8, !tbaa !27
  %.val = load ptr, ptr %14, align 8, !tbaa !31
  %15 = getelementptr i8, ptr %14, i64 32
  %.val9 = load ptr, ptr %15, align 8, !tbaa !32
  %16 = getelementptr i8, ptr %.val, i64 32
  %.val.val = load ptr, ptr %16, align 8, !tbaa !3
  %.val9.val = load i32, ptr %.val9, align 4, !tbaa !33
  %17 = getelementptr i8, ptr %.val.val, i64 8
  %.val.val.val = load ptr, ptr %17, align 8, !tbaa !26
  %18 = sext i32 %.val9.val to i64
  %19 = getelementptr inbounds ptr, ptr %.val.val.val, i64 %18
  %20 = load ptr, ptr %19, align 8, !tbaa !27
  %21 = getelementptr i8, ptr %20, i64 16
  %.val11 = load i32, ptr %21, align 8, !tbaa !34
  %22 = sext i32 %.val11 to i64
  %23 = getelementptr inbounds i32, ptr %.val10.val, i64 %22
  %24 = load i32, ptr %23, align 4, !tbaa !33
  %25 = tail call noundef i32 @llvm.smax.i32(i32 %12, i32 %24)
  store i32 %25, ptr %2, align 8, !tbaa !86
  %indvars.iv.next = add nuw nsw i64 %indvars.iv, 1
  %exitcond.not = icmp eq i64 %indvars.iv.next, %wide.trip.count
  br i1 %exitcond.not, label %.critedge, label %11, !llvm.loop !89

.critedge:                                        ; preds = %11, %1
  ret void
}